target datalayout = "e-m:e-p270:32:32-p271:32:32-p272:64:64-i64:64-i128:128-f80:128-n8:16:32:64-S128"
target triple = "x86_64-pc-linux-gnu"

%struct.SDL_Renderer = type { ptr, ptr, ptr, ptr, ptr, ptr, ptr, ptr, ptr, ptr, ptr, ptr, ptr, ptr, ptr, ptr, ptr, ptr, ptr, ptr, ptr, ptr, ptr, ptr, ptr, ptr, ptr, ptr, ptr, ptr, i32, i8, ptr, i8, i8, i8, i64, i64, ptr, %struct.SDL_RenderViewState, %struct.SDL_FPoint, i32, i32, ptr, ptr, ptr, i32, float, float, float, float, %struct.SDL_FColor, i32, i32, i32, ptr, ptr, ptr, ptr, i32, %struct.SDL_FColor, float, %struct.SDL_Rect, %struct.SDL_Rect, i8, i8, i8, i8, ptr, i64, i64, i8, ptr, ptr, i32, ptr, i8, ptr, ptr }
%struct.SDL_RenderViewState = type { i32, i32, %struct.SDL_Rect, %struct.SDL_Rect, %struct.SDL_Rect, %struct.SDL_Rect, i8, %struct.SDL_FPoint, i32, i32, i32, %struct.SDL_FRect, %struct.SDL_FRect, %struct.SDL_FPoint, %struct.SDL_FPoint, %struct.SDL_FPoint }
%struct.SDL_FRect = type { float, float, float, float }
%struct.SDL_FPoint = type { float, float }
%struct.SDL_FColor = type { float, float, float, float }
%struct.SDL_Rect = type { i32, i32, i32, i32 }
%struct.VULKAN_Buffer = type { ptr, ptr, i64, ptr }
%struct.SDL_Texture = type { i32, i32, i32, i32, i32, float, float, i32, i32, i32, %struct.SDL_FColor, %struct.SDL_RenderViewState, ptr, ptr, ptr, ptr, i32, %struct.SDL_Rect, ptr, i32, i32, ptr, ptr, ptr }
%struct.VULKAN_TextureData = type { %struct.VULKAN_Image, [2 x ptr], ptr, %struct.VULKAN_Buffer, %struct.SDL_Rect, i32, i32, i32, ptr, ptr, ptr, ptr }
%struct.VULKAN_Image = type { i8, ptr, ptr, ptr, i32, i32 }

@.str.25 = private unnamed_addr constant [35 x i8] c"Texture is not currently available\00", align 1

; Function Attrs: nounwind uwtable
define internal i32 @VULKAN_VkFormatGetNumPlanes(i32 noundef %0) #0 {
  %2 = alloca i32, align 4
  %3 = alloca i32, align 4
  store i32 %0, ptr %3, align 4
  %4 = load i32, ptr %3, align 4
  switch i32 %4, label %7 [
    i32 1000156002, label %5
    i32 1000156003, label %6
    i32 1000156013, label %6
  ]

5:                                                ; preds = %1
  store i32 3, ptr %2, align 4
  br label %8

6:                                                ; preds = %1, %1
  store i32 2, ptr %2, align 4
  br label %8

7:                                                ; preds = %1
  store i32 1, ptr %2, align 4
  br label %8

8:                                                ; preds = %7, %6, %5
  %9 = load i32, ptr %2, align 4
  ret i32 %9
}

; Function Attrs: nounwind uwtable
define internal zeroext i1 @VULKAN_UpdateTexture(ptr noundef %0, ptr noundef %1, ptr noundef %2, ptr noundef %3, i32 noundef %4) #0 {
  %6 = alloca i1, align 1
  %7 = alloca ptr, align 8
  %8 = alloca ptr, align 8
  %9 = alloca ptr, align 8
  %10 = alloca ptr, align 8
  %11 = alloca i32, align 4
  %12 = alloca ptr, align 8
  %13 = alloca ptr, align 8
  %14 = alloca i32, align 4
  %15 = alloca i32, align 4
  %16 = alloca i32, align 4
  store ptr %0, ptr %7, align 8
  store ptr %1, ptr %8, align 8
  store ptr %2, ptr %9, align 8
  store ptr %3, ptr %10, align 8
  store i32 %4, ptr %11, align 4
  call void @llvm.lifetime.start.p0(i64 8, ptr %12) #6
  %17 = load ptr, ptr %7, align 8
  %18 = getelementptr inbounds nuw %struct.SDL_Renderer, ptr %17, i32 0, i32 77
  %19 = load ptr, ptr %18, align 8
  store ptr %19, ptr %12, align 8
  call void @llvm.lifetime.start.p0(i64 8, ptr %13) #6
  %20 = load ptr, ptr %8, align 8
  %21 = getelementptr inbounds nuw %struct.SDL_Texture, ptr %20, i32 0, i32 21
  %22 = load ptr, ptr %21, align 8
  store ptr %22, ptr %13, align 8
  %23 = load ptr, ptr %13, align 8
  %24 = icmp ne ptr %23, null
  br i1 %24, label %27, label %25

25:                                               ; preds = %5
  %26 = call zeroext i1 (ptr, ...) @SDL_SetError_REAL(ptr noundef @.str.25)
  store i1 %26, ptr %6, align 1
  store i32 1, ptr %14, align 4
  br label %190

27:                                               ; preds = %5
  %28 = load ptr, ptr %12, align 8
  %29 = load ptr, ptr %13, align 8
  %30 = getelementptr inbounds nuw %struct.VULKAN_TextureData, ptr %29, i32 0, i32 0
  %31 = getelementptr inbounds nuw %struct.VULKAN_Image, ptr %30, i32 0, i32 1
  %32 = load ptr, ptr %31, align 8
  %33 = load ptr, ptr %13, align 8
  %34 = getelementptr inbounds nuw %struct.VULKAN_TextureData, ptr %33, i32 0, i32 0
  %35 = getelementptr inbounds nuw %struct.VULKAN_Image, ptr %34, i32 0, i32 5
  %36 = load i32, ptr %35, align 4
  %37 = load ptr, ptr %9, align 8
  %38 = getelementptr inbounds nuw %struct.SDL_Rect, ptr %37, i32 0, i32 0
  %39 = load i32, ptr %38, align 4
  %40 = load ptr, ptr %9, align 8
  %41 = getelementptr inbounds nuw %struct.SDL_Rect, ptr %40, i32 0, i32 1
  %42 = load i32, ptr %41, align 4
  %43 = load ptr, ptr %9, align 8
  %44 = getelementptr inbounds nuw %struct.SDL_Rect, ptr %43, i32 0, i32 2
  %45 = load i32, ptr %44, align 4
  %46 = load ptr, ptr %9, align 8
  %47 = getelementptr inbounds nuw %struct.SDL_Rect, ptr %46, i32 0, i32 3
  %48 = load i32, ptr %47, align 4
  %49 = load ptr, ptr %10, align 8
  %50 = load i32, ptr %11, align 4
  %51 = load ptr, ptr %13, align 8
  %52 = getelementptr inbounds nuw %struct.VULKAN_TextureData, ptr %51, i32 0, i32 0
  %53 = getelementptr inbounds nuw %struct.VULKAN_Image, ptr %52, i32 0, i32 4
  %54 = call zeroext i1 @VULKAN_UpdateTextureInternal(ptr noundef %28, ptr noundef %32, i32 noundef %36, i32 noundef 0, i32 noundef %39, i32 noundef %42, i32 noundef %45, i32 noundef %48, ptr noundef %49, i32 noundef %50, ptr noundef %53)
  br i1 %54, label %56, label %55

55:                                               ; preds = %27
  store i1 false, ptr %6, align 1
  store i32 1, ptr %14, align 4
  br label %190

56:                                               ; preds = %27
  call void @llvm.lifetime.start.p0(i64 4, ptr %15) #6
  %57 = load ptr, ptr %13, align 8
  %58 = getelementptr inbounds nuw %struct.VULKAN_TextureData, ptr %57, i32 0, i32 0
  %59 = getelementptr inbounds nuw %struct.VULKAN_Image, ptr %58, i32 0, i32 5
  %60 = load i32, ptr %59, align 4
  %61 = call i32 @VULKAN_VkFormatGetNumPlanes(i32 noundef %60)
  store i32 %61, ptr %15, align 4
  %62 = load ptr, ptr %10, align 8
  %63 = load ptr, ptr %9, align 8
  %64 = getelementptr inbounds nuw %struct.SDL_Rect, ptr %63, i32 0, i32 3
  %65 = load i32, ptr %64, align 4
  %66 = load i32, ptr %11, align 4
  %67 = mul nsw i32 %65, %66
  %68 = sext i32 %67 to i64
  %69 = getelementptr inbounds i8, ptr %62, i64 %68
  store ptr %69, ptr %10, align 8
  %70 = load i32, ptr %15, align 4
  %71 = icmp eq i32 %70, 3
  br i1 %71, label %72, label %135

72:                                               ; preds = %56
  call void @llvm.lifetime.start.p0(i64 4, ptr %16) #6
  store i32 1, ptr %16, align 4
  br label %73

73:                                               ; preds = %129, %72
  %74 = load i32, ptr %16, align 4
  %75 = load i32, ptr %15, align 4
  %76 = icmp ult i32 %74, %75
  br i1 %76, label %78, label %77

77:                                               ; preds = %73
  store i32 2, ptr %14, align 4
  br label %132

78:                                               ; preds = %73
  %79 = load ptr, ptr %12, align 8
  %80 = load ptr, ptr %13, align 8
  %81 = getelementptr inbounds nuw %struct.VULKAN_TextureData, ptr %80, i32 0, i32 0
  %82 = getelementptr inbounds nuw %struct.VULKAN_Image, ptr %81, i32 0, i32 1
  %83 = load ptr, ptr %82, align 8
  %84 = load ptr, ptr %13, align 8
  %85 = getelementptr inbounds nuw %struct.VULKAN_TextureData, ptr %84, i32 0, i32 0
  %86 = getelementptr inbounds nuw %struct.VULKAN_Image, ptr %85, i32 0, i32 5
  %87 = load i32, ptr %86, align 4
  %88 = load i32, ptr %16, align 4
  %89 = load ptr, ptr %9, align 8
  %90 = getelementptr inbounds nuw %struct.SDL_Rect, ptr %89, i32 0, i32 0
  %91 = load i32, ptr %90, align 4
  %92 = sdiv i32 %91, 2
  %93 = load ptr, ptr %9, align 8
  %94 = getelementptr inbounds nuw %struct.SDL_Rect, ptr %93, i32 0, i32 1
  %95 = load i32, ptr %94, align 4
  %96 = sdiv i32 %95, 2
  %97 = load ptr, ptr %9, align 8
  %98 = getelementptr inbounds nuw %struct.SDL_Rect, ptr %97, i32 0, i32 2
  %99 = load i32, ptr %98, align 4
  %100 = add nsw i32 %99, 1
  %101 = sdiv i32 %100, 2
  %102 = load ptr, ptr %9, align 8
  %103 = getelementptr inbounds nuw %struct.SDL_Rect, ptr %102, i32 0, i32 3
  %104 = load i32, ptr %103, align 4
  %105 = add nsw i32 %104, 1
  %106 = sdiv i32 %105, 2
  %107 = load ptr, ptr %10, align 8
  %108 = load i32, ptr %11, align 4
  %109 = add nsw i32 %108, 1
  %110 = sdiv i32 %109, 2
  %111 = load ptr, ptr %13, align 8
  %112 = getelementptr inbounds nuw %struct.VULKAN_TextureData, ptr %111, i32 0, i32 0
  %113 = getelementptr inbounds nuw %struct.VULKAN_Image, ptr %112, i32 0, i32 4
  %114 = call zeroext i1 @VULKAN_UpdateTextureInternal(ptr noundef %79, ptr noundef %83, i32 noundef %87, i32 noundef %88, i32 noundef %92, i32 noundef %96, i32 noundef %101, i32 noundef %106, ptr noundef %107, i32 noundef %110, ptr noundef %113)
  br i1 %114, label %116, label %115

115:                                              ; preds = %78
  store i1 false, ptr %6, align 1
  store i32 1, ptr %14, align 4
  br label %132

116:                                              ; preds = %78
  %117 = load ptr, ptr %10, align 8
  %118 = load ptr, ptr %9, align 8
  %119 = getelementptr inbounds nuw %struct.SDL_Rect, ptr %118, i32 0, i32 3
  %120 = load i32, ptr %119, align 4
  %121 = add nsw i32 %120, 1
  %122 = sdiv i32 %121, 2
  %123 = load i32, ptr %11, align 4
  %124 = add nsw i32 %123, 1
  %125 = sdiv i32 %124, 2
  %126 = mul nsw i32 %122, %125
  %127 = sext i32 %126 to i64
  %128 = getelementptr inbounds i8, ptr %117, i64 %127
  store ptr %128, ptr %10, align 8
  br label %129

129:                                              ; preds = %116
  %130 = load i32, ptr %16, align 4
  %131 = add i32 %130, 1
  store i32 %131, ptr %16, align 4
  br label %73, !llvm.loop !5

132:                                              ; preds = %115, %77
  call void @llvm.lifetime.end.p0(i64 4, ptr %16) #6
  %133 = load i32, ptr %14, align 4
  switch i32 %133, label %189 [
    i32 2, label %134
  ]

134:                                              ; preds = %132
  br label %188

135:                                              ; preds = %56
  %136 = load i32, ptr %15, align 4
  %137 = icmp eq i32 %136, 2
  br i1 %137, label %138, label %187

138:                                              ; preds = %135
  %139 = load ptr, ptr %8, align 8
  %140 = getelementptr inbounds nuw %struct.SDL_Texture, ptr %139, i32 0, i32 0
  %141 = load i32, ptr %140, align 8
  %142 = icmp eq i32 %141, 808530000
  br i1 %142, label %143, label %147

143:                                              ; preds = %138
  %144 = load i32, ptr %11, align 4
  %145 = add nsw i32 %144, 3
  %146 = and i32 %145, -4
  store i32 %146, ptr %11, align 4
  br label %151

147:                                              ; preds = %138
  %148 = load i32, ptr %11, align 4
  %149 = add nsw i32 %148, 1
  %150 = and i32 %149, -2
  store i32 %150, ptr %11, align 4
  br label %151

151:                                              ; preds = %147, %143
  %152 = load ptr, ptr %12, align 8
  %153 = load ptr, ptr %13, align 8
  %154 = getelementptr inbounds nuw %struct.VULKAN_TextureData, ptr %153, i32 0, i32 0
  %155 = getelementptr inbounds nuw %struct.VULKAN_Image, ptr %154, i32 0, i32 1
  %156 = load ptr, ptr %155, align 8
  %157 = load ptr, ptr %13, align 8
  %158 = getelementptr inbounds nuw %struct.VULKAN_TextureData, ptr %157, i32 0, i32 0
  %159 = getelementptr inbounds nuw %struct.VULKAN_Image, ptr %158, i32 0, i32 5
  %160 = load i32, ptr %159, align 4
  %161 = load ptr, ptr %9, align 8
  %162 = getelementptr inbounds nuw %struct.SDL_Rect, ptr %161, i32 0, i32 0
  %163 = load i32, ptr %162, align 4
  %164 = sdiv i32 %163, 2
  %165 = load ptr, ptr %9, align 8
  %166 = getelementptr inbounds nuw %struct.SDL_Rect, ptr %165, i32 0, i32 1
  %167 = load i32, ptr %166, align 4
  %168 = sdiv i32 %167, 2
  %169 = load ptr, ptr %9, align 8
  %170 = getelementptr inbounds nuw %struct.SDL_Rect, ptr %169, i32 0, i32 2
  %171 = load i32, ptr %170, align 4
  %172 = add nsw i32 %171, 1
  %173 = sdiv i32 %172, 2
  %174 = load ptr, ptr %9, align 8
  %175 = getelementptr inbounds nuw %struct.SDL_Rect, ptr %174, i32 0, i32 3
  %176 = load i32, ptr %175, align 4
  %177 = add nsw i32 %176, 1
  %178 = sdiv i32 %177, 2
  %179 = load ptr, ptr %10, align 8
  %180 = load i32, ptr %11, align 4
  %181 = load ptr, ptr %13, align 8
  %182 = getelementptr inbounds nuw %struct.VULKAN_TextureData, ptr %181, i32 0, i32 0
  %183 = getelementptr inbounds nuw %struct.VULKAN_Image, ptr %182, i32 0, i32 4
  %184 = call zeroext i1 @VULKAN_UpdateTextureInternal(ptr noundef %152, ptr noundef %156, i32 noundef %160, i32 noundef 1, i32 noundef %164, i32 noundef %168, i32 noundef %173, i32 noundef %178, ptr noundef %179, i32 noundef %180, ptr noundef %183)
  br i1 %184, label %186, label %185

185:                                              ; preds = %151
  store i1 false, ptr %6, align 1
  store i32 1, ptr %14, align 4
  br label %189

186:                                              ; preds = %151
  br label %187

187:                                              ; preds = %186, %135
  br label %188

188:                                              ; preds = %187, %134
  store i1 true, ptr %6, align 1
  store i32 1, ptr %14, align 4
  br label %189

189:                                              ; preds = %188, %185, %132
  call void @llvm.lifetime.end.p0(i64 4, ptr %15) #6
  br label %190

190:                                              ; preds = %189, %55, %25
  call void @llvm.lifetime.end.p0(i64 8, ptr %13) #6
  call void @llvm.lifetime.end.p0(i64 8, ptr %12) #6
  %191 = load i1, ptr %6, align 1
  ret i1 %191
}