; Function Attrs: nounwind uwtable
define internal zeroext i1 @VULKAN_UpdateTexture(ptr noundef readonly captures(none) %0, ptr noundef readonly captures(none) %1, ptr noundef readonly captures(none) %2, ptr noundef readonly captures(none) %3, i32 noundef %4) #0 {
  %6 = getelementptr inbounds nuw i8, ptr %0, i64 696
  %7 = load ptr, ptr %6, align 8
  %8 = getelementptr inbounds nuw i8, ptr %1, i64 280
  %9 = load ptr, ptr %8, align 8
  %.not = icmp eq ptr %9, null
  br i1 %.not, label %10, label %12

10:                                               ; preds = %5
  %11 = tail call zeroext i1 (ptr, ...) @SDL_SetError_REAL(ptr noundef nonnull @.str.25) #8
  br label %.loopexit

12:                                               ; preds = %5
  %13 = getelementptr inbounds nuw i8, ptr %9, i64 8
  %14 = load ptr, ptr %13, align 8
  %15 = getelementptr inbounds nuw i8, ptr %9, i64 36
  %16 = load i32, ptr %15, align 4
  %17 = load i32, ptr %2, align 4
  %18 = getelementptr inbounds nuw i8, ptr %2, i64 4
  %19 = load i32, ptr %18, align 4
  %20 = getelementptr inbounds nuw i8, ptr %2, i64 8
  %21 = load i32, ptr %20, align 4
  %22 = getelementptr inbounds nuw i8, ptr %2, i64 12
  %23 = load i32, ptr %22, align 4
  %24 = getelementptr inbounds nuw i8, ptr %9, i64 32
  %25 = tail call fastcc zeroext i1 @VULKAN_UpdateTextureInternal(ptr noundef %7, ptr noundef %14, i32 noundef %16, i32 noundef 0, i32 noundef %17, i32 noundef %19, i32 noundef %21, i32 noundef %23, ptr noundef %3, i32 noundef %4, ptr noundef %24)
  br i1 %25, label %26, label %.loopexit

26:                                               ; preds = %12
  %27 = load i32, ptr %15, align 4
  switch i32 %27, label %.critedge [
    i32 1000156002, label %VULKAN_VkFormatGetNumPlanes.exit
    i32 1000156003, label %56
    i32 1000156013, label %56
  ]

VULKAN_VkFormatGetNumPlanes.exit:                 ; preds = %26
  %28 = load i32, ptr %22, align 4
  %29 = mul nsw i32 %28, %4
  %30 = sext i32 %29 to i64
  %31 = getelementptr inbounds i8, ptr %3, i64 %30
  %32 = add nsw i32 %4, 1
  %33 = sdiv i32 %32, 2
  br label %34

34:                                               ; preds = %VULKAN_VkFormatGetNumPlanes.exit, %48
  %35 = phi i32 [ %28, %VULKAN_VkFormatGetNumPlanes.exit ], [ %49, %48 ]
  %.060 = phi i32 [ 1, %VULKAN_VkFormatGetNumPlanes.exit ], [ %55, %48 ]
  %.05259 = phi ptr [ %31, %VULKAN_VkFormatGetNumPlanes.exit ], [ %54, %48 ]
  %36 = load ptr, ptr %13, align 8
  %37 = load i32, ptr %15, align 4
  %38 = load i32, ptr %2, align 4
  %39 = sdiv i32 %38, 2
  %40 = load i32, ptr %18, align 4
  %41 = sdiv i32 %40, 2
  %42 = load i32, ptr %20, align 4
  %43 = add nsw i32 %42, 1
  %44 = sdiv i32 %43, 2
  %45 = add nsw i32 %35, 1
  %46 = sdiv i32 %45, 2
  %47 = tail call fastcc zeroext i1 @VULKAN_UpdateTextureInternal(ptr noundef %7, ptr noundef %36, i32 noundef %37, i32 noundef %.060, i32 noundef %39, i32 noundef %41, i32 noundef %44, i32 noundef %46, ptr noundef %.05259, i32 noundef %33, ptr noundef %24)
  br i1 %47, label %48, label %.loopexit

48:                                               ; preds = %34
  %49 = load i32, ptr %22, align 4
  %50 = add nsw i32 %49, 1
  %51 = sdiv i32 %50, 2
  %52 = mul nsw i32 %51, %33
  %53 = sext i32 %52 to i64
  %54 = getelementptr inbounds i8, ptr %.05259, i64 %53
  %55 = add nuw nsw i32 %.060, 1
  %exitcond = icmp eq i32 %55, 3
  br i1 %exitcond, label %.critedge, label %34, !llvm.loop !8

56:                                               ; preds = %26, %26
  %57 = load i32, ptr %22, align 4
  %58 = mul nsw i32 %57, %4
  %59 = sext i32 %58 to i64
  %60 = getelementptr inbounds i8, ptr %3, i64 %59
  %61 = load i32, ptr %1, align 8
  %62 = icmp eq i32 %61, 808530000
  %63 = add nsw i32 %4, 3
  %64 = and i32 %63, -4
  %65 = add nsw i32 %4, 1
  %66 = and i32 %65, -2
  %.053 = select i1 %62, i32 %64, i32 %66
  %67 = load ptr, ptr %13, align 8
  %68 = load i32, ptr %2, align 4
  %69 = sdiv i32 %68, 2
  %70 = load i32, ptr %18, align 4
  %71 = sdiv i32 %70, 2
  %72 = load i32, ptr %20, align 4
  %73 = add nsw i32 %72, 1
  %74 = sdiv i32 %73, 2
  %75 = add nsw i32 %57, 1
  %76 = sdiv i32 %75, 2
  %77 = tail call fastcc zeroext i1 @VULKAN_UpdateTextureInternal(ptr noundef %7, ptr noundef %67, i32 noundef %27, i32 noundef 1, i32 noundef %69, i32 noundef %71, i32 noundef %74, i32 noundef %76, ptr noundef %60, i32 noundef %.053, ptr noundef %24)
  br i1 %77, label %.critedge, label %.loopexit

.critedge:                                        ; preds = %48, %26, %56
  br label %.loopexit

.loopexit:                                        ; preds = %34, %.critedge, %56, %12, %10
  %.050 = phi i1 [ %11, %10 ], [ false, %12 ], [ true, %.critedge ], [ false, %56 ], [ false, %34 ]
  ret i1 %.050
}